(dp1
S'output'
p2
S'missing "pass" in view'
p3
sS'layer'
p4
S'ParserContainer'
p5
sS'code'
p6
S'response.write(\'<!DOCTYPE html>\\n<!--[if (gt IE 9)|!(IE)]><!--> <html class="no-js" lang="\', escape=False)\nresponse.write(T.accepted_language or \'en\')\nresponse.write(\'"> <!--<![endif]-->\\n  <head>\\n    <meta charset="utf-8">\\n    <!-- www.phpied.com/conditional-comments-block-downloads/ -->\\n    <!-- Always force latest IE rendering engine\\n         (even in intranet) & Chrome Frame\\n         Remove this if you use the .htaccess -->\\n    <meta http-equiv="X-UA-Compatible" content="IE=edge\', escape=False)\nresponse.write(not request.is_local and \',chrome=1\' or \'\')\nresponse.write(\'">\\n    <!--  Mobile Viewport Fix\\n          j.mp/mobileviewport & davidbcalhoun.com/2010/viewport-metatag\\n          device-width: Occupy full width of the screen in its current orientation\\n          initial-scale = 1.0 retains dimensions instead of zooming out if page height > device height\\n          user-scalable = yes allows the user to zoom in -->\\n    <meta name="viewport" content="width=device-width, initial-scale=1.0">\\n    <title>\', escape=False)\nresponse.write(response.title or request.application)\nresponse.write(\'</title>\\n    <!-- http://dev.w3.org/html5/markup/meta.name.html -->\\n    <meta name="application-name" content="\', escape=False)\nresponse.write(request.application)\nresponse.write(\'">\\n    <!-- Speaking of Google, don\\\'t forget to set your site up:\\n         http://google.com/webmasters -->\\n    <meta name="google-site-verification" content="">\\n    <!-- include stylesheets -->\\n    <link rel="stylesheet" href="https://cdnjs.cloudflare.com/ajax/libs/font-awesome/4.7.0/css/font-awesome.min.css"/>\\n    <link rel="stylesheet" href="\', escape=False)\nresponse.write(URL(\'static\',\'css/bootstrap.min.css\'))\nresponse.write(\'"/>\\n    <link rel="stylesheet" href="\', escape=False)\nresponse.write(URL(\'static\',\'css/web2py-bootstrap4.css\'))\nresponse.write(\'"/>\\n    <link rel="shortcut icon" href="\', escape=False)\nresponse.write(URL(\'static\',\'images/favicon.ico\'))\nresponse.write(\'" type="image/x-icon">\\n    <link rel="apple-touch-icon" href="\', escape=False)\nresponse.write(URL(\'static\',\'images/favicon.png\'))\nresponse.write(\'">\\n    <!-- All JavaScript at the bottom, except for Modernizr which enables\\n         HTML5 elements & feature detects -->\\n    <script src="\', escape=False)\nresponse.write(URL(\'static\',\'js/modernizr-2.8.3.min.js\'))\nresponse.write(\'"></script>\\n      <!-- importando temas para testar -->\\n    <link rel="stylesheet" href="https://bootswatch.com/4/litera/bootstrap.css"/>\\n    <!-- Favicons -->\\n    \', escape=False)\nresponse.write(\'<script type="text/javascript"><!--\\n    // These variables are used by the web2py_ajax_init function in web2py_ajax.js (which is loaded below).\\n    \', escape=False)\nresponse.write(ASSIGNJS(\nw2p_ajax_confirm_message = T(\'Are you sure you want to delete this object?\'),\nw2p_ajax_disable_with_message = T(\'Working...\'),\nw2p_ajax_date_format = T(\'%Y-%m-%d\'),\nw2p_ajax_datetime_format = T(\'%Y-%m-%d %H:%M:%S\'),\najax_error_500 = T.M(\'An error occured, please [[reload %s]] the page\') % URL(args=request.args, vars=request.get_vars)\n))\nresponse.write(\'\\n    //--></script>\\n\', escape=False)\nresponse.files.insert(0,URL(\'static\',\'js/jquery.js\'))\nresponse.files.insert(1,URL(\'static\',\'css/calendar.css\'))\nresponse.files.insert(2,URL(\'static\',\'js/calendar.js\'))\nresponse.files.insert(3,URL(\'static\',\'js/web2py.js\'))\nresponse.include_meta()\nresponse.include_files()\nresponse.write(\'\\n\', escape=False)\nresponse.write(\' <!-- this includes jquery.js, calendar.js/.css and web2py.js -->\\n    \', escape=False)\nresponse.write(\'\\n  </head>\\n  <body>\\n    <div class="w2p_flash alert alert-dismissable">\', escape=False)\nresponse.write(response.flash or \'\')\nresponse.write(\'</div>\\n    <!-- Navbar ======================================= -->\\n    <nav class="navbar navbar-light navbar-expand-md bg-faded bg-dark navbar-dark justify-content-center">\\n       <a href="#" class="navbar-brand d-flex w-50 mr-auto">Model Seven</a>\\n       <button class="navbar-toggler" type="button" data-toggle="collapse" data-target="#navbarNavDropdown" aria-controls="navbarNavDropdown" aria-expanded="false" aria-label="Toggle navigation">\\n         <span class="navbar-toggler-icon"></span>\\n       </button>\\n       <div class="navbar-collapse collapse w-100" id="navbarNavDropdown">\\n         <ul class="navbar-nav w-100 justify-content-center">\\n          \', escape=False)\nfor _item in response.menu or []:\n    response.write(\'\\n          \', escape=False)\n    if len(_item)<4 or not _item[3]:\n        response.write(\'\\n          <li class="nav-item \', escape=False)\n        if _item[1]:\n            response.write(\'active\', escape=False)\n            pass\n        response.write(\'">\\n            <a class="nav-link" href="\', escape=False)\n        response.write(_item[2])\n        response.write(\'">\', escape=False)\n        response.write(_item[0])\n        response.write(\'</a>\\n          </li>\\n          \', escape=False)\n    else:\n        response.write(\'\\n          <li class="nav-item dropdown">\\n            <a class="nav-link dropdown-toggle" href="\', escape=False)\n        response.write(_item[2])\n        response.write(\'" data-toggle="dropdown" aria-haspopup="true" aria-expanded="false">\', escape=False)\n        response.write(_item[0])\n        response.write(\'</a>\\n            <div class="dropdown-menu">\\n              \', escape=False)\n        for _subitem in _item[3]:\n            response.write(\'\\n              <a class="dropdown-item" href="\', escape=False)\n            response.write(_subitem[2])\n            response.write(\'">\', escape=False)\n            response.write(_subitem[0])\n            response.write(\'</a>\\n              \', escape=False)\n            pass\n        response.write(\'\\n            </div>\\n          </li>\\n          \', escape=False)\n        pass\n    response.write(\'\\n          \', escape=False)\n    pass\nresponse.write(\'\\n        </ul>\\n         \\n        \', escape=False)\nif \'auth\' in globals():\n    response.write(\'\\n        <ul class="nav navbar-nav ml-auto w-100 justify-content-end">\\n          <li class="nav-item dropdown">\\n            <a class="nav-link dropdown-toggle" href="#" data-toggle="dropdown" aria-haspopup="true" aria-expanded="false">\\n              \', escape=False)\n    if auth.user:\n        response.write(auth.user.first_name)\n    else:\n        response.write(\'LOGIN\', escape=False)\n        pass\n    response.write(\'\\n            </a>\\n            <div class="dropdown-menu dropdown-menu-right">\\n              \', escape=False)\n    if auth.user:\n        response.write(\'\\n              <a class="dropdown-item" href="\', escape=False)\n        response.write(URL(\'default\',\'user/profile\'))\n        response.write(\'">\', escape=False)\n        response.write(T(\'Profile\'))\n        response.write(\'</a>\\n              \', escape=False)\n        if \'change_password\' not in auth.settings.actions_disabled:\n            response.write(\'\\n              <a class="dropdown-item" href="\', escape=False)\n            response.write(URL(\'default\',\'user/change_password\'))\n            response.write(\'">\', escape=False)\n            response.write(T(\'Change Password\'))\n            response.write(\'</a>\\n              \', escape=False)\n            pass\n        response.write(\'\\n              <a class="dropdown-item" href="\', escape=False)\n        response.write(URL(\'default\',\'user/logout\'))\n        response.write(\'">\', escape=False)\n        response.write(T(\'Logout\'))\n        response.write(\'</a>\\n              \', escape=False)\n    else:\n        response.write(\'\\n              <a class="dropdown-item" href="\', escape=False)\n        response.write(URL(\'default\',\'user/login\'))\n        response.write(\'">\', escape=False)\n        response.write(T(\'Login\'))\n        response.write(\'</a>\\n              \', escape=False)\n        if \'register\' not in auth.settings.actions_disabled:\n            response.write(\'\\n              <a class="dropdown-item" href="\', escape=False)\n            response.write(URL(\'default\',\'user/register\'))\n            response.write(\'">\', escape=False)\n            response.write(T(\'Sign up\'))\n            response.write(\'</a>\\n              \', escape=False)\n            pass\n        response.write(\'\\n              \', escape=False)\n        if \'retrieve_password\' not in auth.settings.actions_disabled:\n            response.write(\'\\n              <a class="dropdown-item" href="\', escape=False)\n            response.write(URL(\'default\',\'user/retrieve_password\'))\n            response.write(\'">\', escape=False)\n            response.write(T(\'Lost Password\'))\n            response.write(\'</a>\\n              \', escape=False)\n            pass\n        response.write(\'\\n              \', escape=False)\n        pass\n    response.write(\'\\n            </div>\\n          </li>\\n        </ul>\\n        \', escape=False)\n    pass\nresponse.write(\'\\n      </div>\\n    </nav>\\n\\n    <!-- Masthead ===================================== -->\\n    \', escape=False)\nresponse.write(\'\\n    \', escape=False)\nresponse.write(\'\\n    <!-- Main ========================================= -->\\n    <!-- Begin page content -->\\n    <div class="container-fluid main-container mb-5 pb-5">\\n      \', escape=False)\nresponse.write(\'\\n\\n\', escape=False)\nimport datetime\nresponse.write(\'\\n\', escape=False)\nmes_atual=primeira_data.month\nresponse.write(\'\\n\', escape=False)\nano_atual=primeira_data.year\nresponse.write(\'\\n\', escape=False)\nmes="Janeiro"\nresponse.write(\'\\n\', escape=False)\nif primeira_data.month==2:\n    response.write(\'\\n\', escape=False)\n    mes="Fevereiro"\n    response.write(\'\\n\\n\', escape=False)\nelif primeira_data.month==3:\n    response.write(\'\\n\', escape=False)\n    mes="Mar\xc3\xa7o"\n    response.write(\'\\n\\n\', escape=False)\nelif primeira_data.month==4:\n    response.write(\'\\n\', escape=False)\n    mes="Abril"\n    response.write(\'\\n\\n\', escape=False)\nelif primeira_data.month==5:\n    response.write(\'\\n\', escape=False)\n    mes="Maio"\n    response.write(\'\\n\\n\', escape=False)\nelif primeira_data.month==6:\n    response.write(\'\\n\', escape=False)\n    mes="Junho"\n    response.write(\'\\n\\n\', escape=False)\nelif primeira_data.month==7:\n    response.write(\'\\n\', escape=False)\n    mes="Julho"\n    response.write(\'\\n\\n\', escape=False)\nelif primeira_data.month==8:\n    response.write(\'\\n\', escape=False)\n    mes="Agosto"\n    response.write(\'\\n\\n\', escape=False)\nelif primeira_data.month==9:\n    response.write(\'\\n\', escape=False)\n    mes="Setembro"\n    response.write(\'\\n\\n\', escape=False)\nelif primeira_data.month==10:\n    response.write(\'\\n\', escape=False)\n    mes="Outubro"\n    response.write(\'\\n\\n\', escape=False)\nelif primeira_data.month==11:\n    response.write(\'\\n\', escape=False)\n    mes="Novembro"\n    response.write(\'\\n\\n\', escape=False)\nelif primeira_data.month==12:\n    response.write(\'\\n\', escape=False)\n    mes="Dezembro"\n    response.write(\'\\n\', escape=False)\n    pass\nresponse.write(\'\\n\', escape=False)\nif primeira_data.month==1:\n    response.write(\'\\n    \', escape=False)\n    primeira_data=datetime.date(primeira_data.year-1, 12, 1)\n    response.write(\'\\n\', escape=False)\nelse:\n    response.write(\'\\n    \', escape=False)\n    primeira_data=datetime.date(primeira_data.year,  primeira_data.month-1, 1)\n    response.write(\'\\n\', escape=False)\n    pass\nresponse.write(\'\\n\\n<div class="py-5 text-center" >\\n    <div class="container">\\n      <div class="row">\\n        <div class="mx-auto col-md-8">\\n          <h2 class="mb-3">Lista de Vendas</h2>\\n          <p class="lead">\', escape=False)\nresponse.write(representante.nome)\nresponse.write(\'</p>\\n        </div>\\n      </div>\\n    </div>\\n  </div>\\n  <div class="">\\n    <div class="container">\\n      <div class="row">\\n        <div class="col-md-6">\\n          <div class="row">\\n            <div class="col-md-4 my-1">\\n                <a class="btn btn-primary btn-block" href="\', escape=False)\nresponse.write(URL(\'acs_usuario_empresa\',\'index\'))\nresponse.write(\'">\\n                    <i class="fa fa-fw fa-arrow-left"></i>\\n                    Voltar\\n                </a>\\n            </div>\\n               <div class="col-md-4 my-1">\\n                <a class="btn btn-primary btn-block" href="\', escape=False)\nresponse.write(URL(\'acs_cliente\',\'lista_representante\'))\nresponse.write(\'">\\n                    <i class="fa fa-fw fa-users"></i>\\n                    Ver Clientes\\n                </a>\\n            </div>\\n              \\n          </div>\\n        </div>\\n        <div class="col-md-6">\\n         <div class="row">\\n                <div class="col-md-4 my-1">\\n                    <a class="btn btn-secondary btn-block" href="\', escape=False)\nresponse.write(URL(args=[representante.id,primeira_data.month,primeira_data.year]))\nresponse.write(\'">\\n                        <i class="fa fa-fw fa-chevron-left"></i>&nbsp;Anterior \\n                    </a>\\n                </div>\\n                <div class="col-md-4 my-1">\\n                    <h5 class="">\', escape=False)\nresponse.write(mes)\nresponse.write(\' \', escape=False)\nresponse.write(ano)\nresponse.write(\'</h5>\\n                </div>\\n                <div class="col-md-4 my-1">\\n                    <a class="btn btn-secondary btn-block" href="\', escape=False)\nresponse.write(URL(args=[representante.id,ultima_data.month,ultima_data.year]))\nresponse.write(\'">&nbsp;Pr\\xc3\\xb3ximo \\n                        <i class="fa fa-fw fa-chevron-right"></i>\\n                    </a>\\n                </div>\\n            </div>\\n        </div>\\n      </div>\\n      <div class="row">\\n        <div class="col-md-12">\\n          <div class="table-responsive">\\n            <table class="table table-striped table-borderless">\\n              <thead>\\n                <tr>\\n                  <th scope="col">Data</th>\\n                  <th scope="col">Cliente</th>\\n                  <th scope="col">Valor</th>\\n                  <th scope="col">Status</th>\\n                  <th scope="col">Acessar</th>\\n                </tr>\\n              </thead>\\n              <tbody>\\n                  \', escape=False)\naberto=0\nresponse.write(\'\\n                  \', escape=False)\nfechado=0\nresponse.write(\'\\n                  \', escape=False)\nentregue=0\nresponse.write(\'\\n                  \', escape=False)\ndevolvido=0\nresponse.write(\'\\n                  \', escape=False)\nfor row in rows:\n    response.write(\'\\n                <tr>\\n                  <th scope="row">\', escape=False)\n    response.write(("{}/{}/{}".format(row.data_venda.day,row.data_venda.month,row.data_venda.year)))\n    response.write(\'</th>\\n                  <th scope="row">\', escape=False)\n    response.write(row.cliente.razaosocial_nome)\n    response.write(\'</th>\\n                  <td>R$ \', escape=False)\n    response.write("{:,}".format(round(row.preco_total,1)).replace(",","."))\n    response.write(\'0</td>\\n                    <td>\', escape=False)\n    response.write(row.status)\n    response.write(\'</td>\\n                    <td><a class="btn btn-primary btn-block" href="\', escape=False)\n    response.write(URL(\'acs_item_venda\',\'lista_status\',args=row.id))\n    response.write(\'">\\n                    <i class="fa fa-fw fa-folder"></i>\\n                    Acessar\\n                </a></td>\\n                </tr>\\n                 \', escape=False)\n    if row.status="Aberto":\n        response.write(\'\\n                  \', escape=False)\n        aberto+=row.preco_total\n        response.write(\'\\n                 \', escape=False)\n    elif row.status="Fechado":\n        response.write(\'\\n                  \', escape=False)\n        fechado+=row.preco_total\n        response.write(\'\\n                 \', escape=False)\n    elif row.status="Entregue":\n        response.write(\'\\n                  \', escape=False)\n        entregue+=row.preco_total\n        response.write(\'\\n                 \', escape=False)\n    elif row.status="Devolvido":\n        response.write(\'\\n                  \', escape=False)\n        devolvido+=row.preco_total\n        response.write(\'\\n                  \', escape=False)\n        pass\n    response.write(\'\\n              </tbody>\\n            </table>\\n          </div>\\n        </div>\\n      </div>\\n      <div class="row">\\n        <div class="col-md-6">\\n          <p class="">Total \', escape=False)\n    response.write(total)\n    response.write(\' em vendas / \', escape=False)\n    response.write(mes)\n    response.write(\' de \', escape=False)\n    response.write(ano)\n    response.write(\'</p>\\n        </div>\\n        <div class="col-md-6">\\n          \\n        </div>\\n      </div>\\n    \\n      <div class="row text-center">\\n        <div class="mx-auto col-md-8">\\n          <h3 class="mb-3">Relat\\xc3\\xb3rio do M\\xc3\\xaas</h3>\\n          <p class="lead">\', escape=False)\n    response.write(mes)\n    response.write(\' de \', escape=False)\n    response.write(ano)\n    response.write(\'</p>\\n          <p class="lead">\', escape=False)\n    response.write(representante.nome)\n    response.write(\'</p>\\n        </div>\\n      </div>\\n      <div class="row justify-content-center  text-center">\\n        <div class="col-md-6 p-4"> <i class="d-block fa fa-circle fa-3x mb-2 text-muted"></i>\\n          <h4> <b>Venda</b></h4>\\n          <p>Aberto R$ \', escape=False)\n    response.write("{:,}".format(round(aberto,1)).replace(",","."))\n    response.write(\'0<br></p>\\n          <p>Fechado R$ \', escape=False)\n    response.write("{:,}".format(round(fechado,1)).replace(",","."))\n    response.write(\'0<br></p>\\n          <p>Entregue R$ \', escape=False)\n    response.write("{:,}".format(round(entregue,1)).replace(",","."))\n    response.write(\'0<br></p>\\n          <p>Devolvido R$ \', escape=False)\n    response.write("{:,}".format(round(devolvido,1)).replace(",","."))\n    response.write(\'0<br></p>\\n        </div>\\n        <div class="col-md-6 col-6 p-4"> <i class="d-block fa fa-stop-circle-o fa-3x mb-2 text-muted"></i>\\n          <h4> <b>Comiss\\xc3\\xa3o</b></h4>\\n          <p>Valor Comiss\\xc3\\xa3o</p>\\n          <p>Valor Real</p>\\n          <p>Valor Recebido</p>\\n          <p>Saldo/ D\\xc3\\xa9bito</p>\\n        </div>\\n      </div>\\n    </div>\\n  </div>\\n\', escape=False)\n    response.write(\'\\n      \', escape=False)\n    response.write(response.toolbar() if response.show_toolbar else \'\')\n    response.write(\'\\n    </div>\\n\\n    \', escape=False)\n    response.write(\' <!-- this is default footer -->\\n    <footer class="footer container-fluid">\\n      <div class="row">\\n        <div class="col-md-12">\\n          <div class="copyright pull-left">\', escape=False)\n    response.write(T(\'Copyright\'))\n    response.write(\' &#169; \', escape=False)\n    response.write(request.now.year)\n    response.write(\'</div>\\n          <div id="poweredBy" class="pull-right">\\n            Arsenal System - (88)98112-6816\\n          </div>\\n        </div>\\n      </div>\\n    </footer>\\n    \', escape=False)\n    response.write(\'\\n    <!-- The javascript =============================== -->\\n    <script src="\', escape=False)\n    response.write(URL(\'static\',\'js/bootstrap.bundle.min.js\'))\n    response.write(\'"></script>\\n    <script src="\', escape=False)\n    response.write(URL(\'static\',\'js/web2py-bootstrap4.js\'))\n    response.write(\'"></script>\\n    \', escape=False)\n    response.write(\'\\n    \', escape=False)\n    if response.google_analytics_id:\n        response.write(\'\\n    <!-- Analytics ==================================== -->\\n    <script src="\', escape=False)\n        response.write(URL(\'static\',\'js/analytics.min.js\'))\n        response.write(\'"></script>\\n    <script type="text/javascript">\\n      analytics.initialize({\\n      \\\'Google Analytics\\\':{trackingId:\\\'\', escape=False)\n        response.write(response.google_analytics_id)\n        response.write("\'}\\n      });\\n    </script>\\n    ", escape=False)\n        pass\n    response.write(\'\\n  </body>\\n</html>\\n\', escape=False)'
p7
sS'snapshot'
p8
(dp9
sS'traceback'
p10
S'None\n'
p11
s.